; Function Attrs: mustprogress uwtable
define internal noundef ptr @"_ZZN4pkpy15__init_builtinsEPNS_2VMEEN5$_1038__invokeES1_NS_8ArgsViewE"(ptr noundef %0, ptr nocapture readonly %1, ptr nocapture readnone %2) #4 align 2 personality ptr @__gxx_personality_v0 {
  %4 = alloca %"struct.pkpy::Str", align 8
  call void @llvm.lifetime.start.p0(i64 32, ptr nonnull %4)
  %5 = load ptr, ptr %1, align 8
  %6 = getelementptr inbounds i8, ptr %5, i64 24
  call void @_ZNK4pkpy3Str5upperEv(ptr dead_on_unwind nonnull writable sret(%"struct.pkpy::Str") align 8 %4, ptr noundef nonnull align 8 dereferenceable(32) %6)
  %7 = getelementptr inbounds i8, ptr %0, i64 16
  %8 = invoke noundef ptr @_ZN4pkpy11ManagedHeap5gcnewINS_3StrEJS2_EEEPNS_8PyObjectENS_4TypeEDpOT0_(ptr noundef nonnull align 8 dereferenceable(84) %7, i16 5, ptr noundef nonnull align 8 dereferenceable(32) %4)
          to label %"_ZZN4pkpy15__init_builtinsEPNS_2VMEENK5$_103clES1_NS_8ArgsViewE.exit" unwind label %9

9:                                                ; preds = %3
  %10 = landingpad { ptr, i32 }
          cleanup
  call void @_ZN4pkpy3StrD1Ev(ptr noundef nonnull align 8 dereferenceable(32) %4) #35
  resume { ptr, i32 } %10

"_ZZN4pkpy15__init_builtinsEPNS_2VMEENK5$_103clES1_NS_8ArgsViewE.exit": ; preds = %3
  call void @_ZN4pkpy3StrD1Ev(ptr noundef nonnull align 8 dereferenceable(32) %4) #35
  call void @llvm.lifetime.end.p0(i64 32, ptr nonnull %4)
  ret ptr %8
}